Certificate:
    Data:
        Version: 3 (0x2)
        Serial Number:
            37:14:f8:ff:27:c7:dc:9a:7e:d5:ea:a2:15:d4:21:19:e7:04:83:06
        Signature Algorithm: sha256WithRSAEncryption
        Issuer: C=CH, ST=shanghai, O=nio, OU=dpd, CN=jinbao/emailAddress=jinbao.tang@nio.com
        Validity
            Not Before: Jun  6 10:56:27 2021 GMT
            Not After : Jun  5 10:56:27 2024 GMT
        Subject: C=CH, ST=shanghai, O=nio, OU=dpd, CN=jinbao/emailAddress=jinbao.tang@nio.com
        Subject Public Key Info:
            Public Key Algorithm: rsaEncryption
                RSA Public-Key: (2048 bit)
                Modulus:
                    00:c5:c7:ba:13:7f:a2:8b:45:05:a5:47:2c:6e:28:
                    93:78:24:a3:d8:9a:88:e9:9b:4f:22:db:ca:2d:d5:
                    bc:07:ea:8c:d0:cb:68:ac:17:33:35:84:49:85:10:
                    11:a6:5e:af:a9:4d:2a:bc:3d:88:61:c4:1e:c2:e0:
                    bd:fa:77:f3:32:ed:4d:cb:80:78:ef:79:61:2a:f6:
                    57:9d:b6:f2:a5:1e:b3:5e:23:f0:e9:85:35:d6:f1:
                    7a:c4:1c:70:52:97:db:35:b0:48:18:7b:4b:37:03:
                    43:15:c5:5c:5d:19:cd:86:b0:ff:f7:0b:db:44:2d:
                    a5:9e:eb:bc:bf:71:29:75:02:82:7c:86:ea:55:90:
                    0b:b2:dc:a9:d5:c1:50:16:fe:61:1c:89:67:82:40:
                    a6:dc:9c:91:95:d0:13:18:9f:ff:89:46:0a:55:24:
                    f5:bc:00:51:32:40:51:5d:ac:4d:16:8a:71:a7:7e:
                    83:e3:c9:a3:a1:79:d9:b1:2d:9b:34:d6:4e:c0:26:
                    90:5b:38:86:1c:02:37:b3:f2:c5:6e:84:fe:fe:44:
                    c2:e7:fc:05:d1:3c:08:6b:42:7f:a3:5f:d2:2c:a9:
                    a0:de:10:b6:3d:f2:b1:c7:cc:a2:71:30:1e:1a:2a:
                    bf:c2:e1:af:af:94:ea:1b:5d:e3:c6:fb:6c:55:ef:
                    3e:8b
                Exponent: 65537 (0x10001)
        X509v3 extensions:
            X509v3 Subject Key Identifier: 
                75:B5:86:8D:9F:FA:15:19:BF:EA:A4:33:53:51:DE:16:50:40:F2:01
            X509v3 Authority Key Identifier: 
                keyid:75:B5:86:8D:9F:FA:15:19:BF:EA:A4:33:53:51:DE:16:50:40:F2:01

            X509v3 Basic Constraints: critical
                CA:TRUE
    Signature Algorithm: sha256WithRSAEncryption
         bd:5e:2b:b2:99:7d:f5:6e:93:ca:ef:58:0e:b4:59:b2:29:a9:
         77:04:41:d5:48:30:6b:73:73:02:52:25:74:01:2f:34:df:2e:
         d3:7a:bd:13:f9:9e:7c:87:21:e6:33:aa:1e:a9:83:06:2a:44:
         cc:c2:6b:6a:35:83:b2:8e:69:23:74:ca:60:1c:cf:88:22:18:
         b0:7b:c1:a9:e9:42:f1:16:c1:a7:7c:3e:a8:a8:ce:71:15:cf:
         19:d7:81:bd:9b:bf:09:67:46:20:94:c1:7e:f0:37:76:fa:c4:
         02:7b:67:83:7b:46:c3:39:ff:ae:94:cf:c6:2a:24:bf:71:b7:
         58:ff:e4:00:d3:b1:b6:07:d9:67:7d:69:fb:1b:fe:4a:73:b7:
         48:02:e3:f4:c9:e1:8f:6d:7e:73:2b:ce:59:b2:06:a7:65:31:
         41:01:19:1a:d5:d9:7d:73:eb:48:94:ab:93:25:d3:c2:14:47:
         8f:b9:24:fd:eb:2d:58:5e:20:54:84:b5:e7:8e:32:0c:5a:6d:
         11:58:7d:cd:2c:ac:e0:99:6f:05:74:d1:92:5d:6f:ca:9c:94:
         b8:38:b0:8b:92:02:48:02:25:0c:4a:82:67:78:89:5b:41:90:
         e9:84:04:a6:7c:ac:36:0a:f4:3c:73:8d:ef:a5:2b:04:22:56:
         ff:3f:86:f2
-----BEGIN CERTIFICATE-----
MIIDwzCCAqugAwIBAgIUNxT4/yfH3Jp+1eqiFdQhGecEgwYwDQYJKoZIhvcNAQEL
BQAwcTELMAkGA1UEBhMCQ0gxETAPBgNVBAgMCHNoYW5naGFpMQwwCgYDVQQKDANu
aW8xDDAKBgNVBAsMA2RwZDEPMA0GA1UEAwwGamluYmFvMSIwIAYJKoZIhvcNAQkB
FhNqaW5iYW8udGFuZ0BuaW8uY29tMB4XDTIxMDYwNjEwNTYyN1oXDTI0MDYwNTEw
NTYyN1owcTELMAkGA1UEBhMCQ0gxETAPBgNVBAgMCHNoYW5naGFpMQwwCgYDVQQK
DANuaW8xDDAKBgNVBAsMA2RwZDEPMA0GA1UEAwwGamluYmFvMSIwIAYJKoZIhvcN
AQkBFhNqaW5iYW8udGFuZ0BuaW8uY29tMIIBIjANBgkqhkiG9w0BAQEFAAOCAQ8A
MIIBCgKCAQEAxce6E3+ii0UFpUcsbiiTeCSj2JqI6ZtPItvKLdW8B+qM0MtorBcz
NYRJhRARpl6vqU0qvD2IYcQewuC9+nfzMu1Ny4B473lhKvZXnbbypR6zXiPw6YU1
1vF6xBxwUpfbNbBIGHtLNwNDFcVcXRnNhrD/9wvbRC2lnuu8v3EpdQKCfIbqVZAL
styp1cFQFv5hHIlngkCm3JyRldATGJ//iUYKVST1vABRMkBRXaxNFopxp36D48mj
oXnZsS2bNNZOwCaQWziGHAI3s/LFboT+/kTC5/wF0TwIa0J/o1/SLKmg3hC2PfKx
x8yicTAeGiq/wuGvr5TqG13jxvtsVe8+iwIDAQABo1MwUTAdBgNVHQ4EFgQUdbWG
jZ/6FRm/6qQzU1HeFlBA8gEwHwYDVR0jBBgwFoAUdbWGjZ/6FRm/6qQzU1HeFlBA
8gEwDwYDVR0TAQH/BAUwAwEB/zANBgkqhkiG9w0BAQsFAAOCAQEAvV4rspl99W6T
yu9YDrRZsimpdwRB1Ugwa3NzAlIldAEvNN8u03q9E/mefIch5jOqHqmDBipEzMJr
ajWDso5pI3TKYBzPiCIYsHvBqelC8RbBp3w+qKjOcRXPGdeBvZu/CWdGIJTBfvA3
dvrEAntng3tGwzn/rpTPxiokv3G3WP/kANOxtgfZZ31p+xv+SnO3SALj9Mnhj21+
cyvOWbIGp2UxQQEZGtXZfXPrSJSrkyXTwhRHj7kk/estWF4gVIS1544yDFptEVh9
zSys4JlvBXTRkl1vypyUuDiwi5ICSAIlDEqCZ3iJW0GQ6YQEpnysNgr0PHON76Ur
BCJW/z+G8g==
-----END CERTIFICATE-----
