Certificate:
    Data:
        Version: 3 (0x2)
        Serial Number:
            37:14:f8:ff:27:c7:dc:9a:7e:d5:ea:a2:15:d4:21:19:e7:04:83:03
        Signature Algorithm: sha256WithRSAEncryption
        Issuer: C=CH, ST=shanghai, O=nio, OU=jinbao, CN=jinbao/emailAddress=jinbao.tang@nio.com
        Validity
            Not Before: Jun  6 09:22:30 2021 GMT
            Not After : Jun  5 09:22:30 2024 GMT
        Subject: C=CH, ST=shanghai, O=nio, OU=jinbao, CN=jinbao/emailAddress=jinbao.tang@nio.com
        Subject Public Key Info:
            Public Key Algorithm: rsaEncryption
                RSA Public-Key: (2048 bit)
                Modulus:
                    00:c0:73:6a:e6:69:23:74:bb:f7:95:00:76:c7:f0:
                    58:37:75:cf:f4:31:bb:a5:ea:40:1e:f3:27:4c:3e:
                    1c:76:64:e4:e7:f5:39:f5:45:b5:3f:2f:d7:95:09:
                    e1:72:73:ec:05:d7:fd:c4:b4:d6:1f:f3:f5:34:d9:
                    d3:eb:6a:db:79:6e:d7:5b:b3:64:c3:50:92:0f:71:
                    d0:ee:54:39:68:b0:8d:bc:80:e0:05:d3:bf:4a:5b:
                    a0:c3:80:7f:b4:3b:92:26:ef:63:2d:ed:ba:bb:1d:
                    78:54:81:e4:3d:18:47:0c:a0:c4:8a:08:37:05:83:
                    79:54:c8:96:df:d7:59:e5:76:5e:df:f9:9c:92:23:
                    87:db:66:37:64:d9:16:8b:9a:9b:55:3b:eb:36:32:
                    f6:d0:d6:07:e8:f3:f1:dc:8c:91:cd:18:4e:ec:48:
                    0a:8f:fa:d7:81:4b:1e:77:8f:eb:5f:bb:75:fb:71:
                    07:81:cc:67:ea:4a:f0:ef:a2:be:b2:6d:52:26:dc:
                    75:ae:05:8b:cf:86:1c:15:f0:01:14:ad:e1:ab:19:
                    94:56:97:51:b6:20:7a:fd:63:53:45:1e:d7:8b:da:
                    51:da:4d:11:59:49:af:1b:d2:01:c6:11:34:62:a8:
                    a2:6b:68:a6:4c:e9:e7:0a:96:0a:d2:d1:c6:79:4f:
                    69:bd
                Exponent: 65537 (0x10001)
        X509v3 extensions:
            X509v3 Subject Key Identifier: 
                62:08:F3:07:CA:15:A8:E7:64:60:C6:BE:88:66:AF:F0:8D:7F:AC:77
            X509v3 Authority Key Identifier: 
                keyid:62:08:F3:07:CA:15:A8:E7:64:60:C6:BE:88:66:AF:F0:8D:7F:AC:77

            X509v3 Basic Constraints: critical
                CA:TRUE
    Signature Algorithm: sha256WithRSAEncryption
         72:84:f7:a8:ce:c8:5e:29:71:49:da:fd:77:b7:fb:25:d1:79:
         38:ca:03:49:45:f9:92:fd:94:6f:ba:fd:ff:24:24:0e:2b:3a:
         69:62:29:37:44:94:3b:4d:03:eb:94:a7:e4:75:f7:b2:01:8b:
         16:1d:de:c0:0f:86:96:5c:b8:4f:4e:77:22:7f:bd:33:a3:38:
         b4:73:f1:5a:88:8a:7f:50:9a:e1:fb:e7:00:05:ca:71:2e:a5:
         95:83:b5:28:c4:86:28:38:57:a6:f5:b5:e1:4c:83:50:16:b6:
         b6:4f:f8:f6:55:e0:24:82:2f:32:07:6c:ea:41:4b:2a:0e:46:
         f8:27:9a:de:40:a9:32:47:e4:77:2f:24:e6:3b:3a:b7:43:06:
         6d:3d:86:ac:13:6d:0d:22:53:5c:40:27:46:4f:29:db:05:03:
         20:73:6c:3b:01:c4:97:97:43:4b:7a:72:6a:91:2b:56:35:48:
         a5:60:51:9c:af:b5:25:9b:b7:e8:3f:ad:3a:ac:c2:d9:0b:26:
         44:29:9c:d3:0e:25:11:1b:eb:fc:24:9f:7b:17:c4:dd:d2:9d:
         32:ae:a4:14:b3:ad:97:68:2f:67:0f:60:0f:fa:59:f1:e8:f4:
         ca:e9:3f:88:39:88:03:43:f2:d1:de:dc:b9:61:35:57:c4:b9:
         83:eb:9d:0d
-----BEGIN CERTIFICATE-----
MIIDyTCCArGgAwIBAgIUNxT4/yfH3Jp+1eqiFdQhGecEgwMwDQYJKoZIhvcNAQEL
BQAwdDELMAkGA1UEBhMCQ0gxETAPBgNVBAgMCHNoYW5naGFpMQwwCgYDVQQKDANu
aW8xDzANBgNVBAsMBmppbmJhbzEPMA0GA1UEAwwGamluYmFvMSIwIAYJKoZIhvcN
AQkBFhNqaW5iYW8udGFuZ0BuaW8uY29tMB4XDTIxMDYwNjA5MjIzMFoXDTI0MDYw
NTA5MjIzMFowdDELMAkGA1UEBhMCQ0gxETAPBgNVBAgMCHNoYW5naGFpMQwwCgYD
VQQKDANuaW8xDzANBgNVBAsMBmppbmJhbzEPMA0GA1UEAwwGamluYmFvMSIwIAYJ
KoZIhvcNAQkBFhNqaW5iYW8udGFuZ0BuaW8uY29tMIIBIjANBgkqhkiG9w0BAQEF
AAOCAQ8AMIIBCgKCAQEAwHNq5mkjdLv3lQB2x/BYN3XP9DG7pepAHvMnTD4cdmTk
5/U59UW1Py/XlQnhcnPsBdf9xLTWH/P1NNnT62rbeW7XW7Nkw1CSD3HQ7lQ5aLCN
vIDgBdO/Slugw4B/tDuSJu9jLe26ux14VIHkPRhHDKDEigg3BYN5VMiW39dZ5XZe
3/mckiOH22Y3ZNkWi5qbVTvrNjL20NYH6PPx3IyRzRhO7EgKj/rXgUsed4/rX7t1
+3EHgcxn6krw76K+sm1SJtx1rgWLz4YcFfABFK3hqxmUVpdRtiB6/WNTRR7Xi9pR
2k0RWUmvG9IBxhE0Yqiia2imTOnnCpYK0tHGeU9pvQIDAQABo1MwUTAdBgNVHQ4E
FgQUYgjzB8oVqOdkYMa+iGav8I1/rHcwHwYDVR0jBBgwFoAUYgjzB8oVqOdkYMa+
iGav8I1/rHcwDwYDVR0TAQH/BAUwAwEB/zANBgkqhkiG9w0BAQsFAAOCAQEAcoT3
qM7IXilxSdr9d7f7JdF5OMoDSUX5kv2Ub7r9/yQkDis6aWIpN0SUO00D65Sn5HX3
sgGLFh3ewA+Glly4T053In+9M6M4tHPxWoiKf1Ca4fvnAAXKcS6llYO1KMSGKDhX
pvW14UyDUBa2tk/49lXgJIIvMgds6kFLKg5G+Cea3kCpMkfkdy8k5js6t0MGbT2G
rBNtDSJTXEAnRk8p2wUDIHNsOwHEl5dDS3pyapErVjVIpWBRnK+1JZu36D+tOqzC
2QsmRCmc0w4lERvr/CSfexfE3dKdMq6kFLOtl2gvZw9gD/pZ8ej0yuk/iDmIA0Py
0d7cuWE1V8S5g+udDQ==
-----END CERTIFICATE-----
