Certificate:
    Data:
        Version: 3 (0x2)
        Serial Number:
            37:14:f8:ff:27:c7:dc:9a:7e:d5:ea:a2:15:d4:21:19:e7:04:83:05
        Signature Algorithm: sha256WithRSAEncryption
        Issuer: C=CH, ST=shanghai, O=nio, OU=jinbao, CN=jinbao/emailAddress=jinbao.tang@nio.com
        Validity
            Not Before: Jun  6 09:35:16 2021 GMT
            Not After : Jun  6 09:35:16 2022 GMT
        Subject: C=CH, ST=shanghai, O=nio, OU=dpd, CN=jinbao_s/emailAddress=jinbao.tang@nio.com
        Subject Public Key Info:
            Public Key Algorithm: rsaEncryption
                RSA Public-Key: (1024 bit)
                Modulus:
                    00:bc:f0:2a:b6:63:69:57:6d:3c:7f:7f:ab:fa:ca:
                    ed:eb:ae:8d:e0:56:f6:ee:4e:55:e0:a4:42:fc:10:
                    e0:df:63:01:7f:11:30:78:c0:db:14:28:35:0d:8b:
                    2e:39:4f:54:14:f6:b4:af:bd:f3:1a:f6:de:c6:01:
                    21:85:d4:e9:60:fd:f1:43:f6:1b:a4:71:c1:89:58:
                    6e:7e:cb:8c:c9:91:10:2d:b7:52:2e:7c:fe:c6:ce:
                    2f:c6:59:e4:21:e1:59:a7:f4:80:be:2f:65:53:b8:
                    ca:62:a5:a8:86:ce:30:37:4a:fb:47:d5:07:75:64:
                    d0:3c:d2:15:c5:23:22:fd:b1
                Exponent: 65537 (0x10001)
        X509v3 extensions:
            X509v3 Basic Constraints: 
                CA:FALSE
            Netscape Comment: 
                OpenSSL Generated Certificate
            X509v3 Subject Key Identifier: 
                C2:52:29:11:D5:0D:E6:58:FB:9B:9A:34:79:34:79:16:76:67:38:B5
            X509v3 Authority Key Identifier: 
                keyid:62:08:F3:07:CA:15:A8:E7:64:60:C6:BE:88:66:AF:F0:8D:7F:AC:77

    Signature Algorithm: sha256WithRSAEncryption
         8b:53:fa:b2:02:76:c0:0f:dc:3d:25:e0:50:ac:ae:dc:43:f1:
         2a:54:ee:30:7f:81:52:cf:9e:53:17:66:a3:0c:a3:f2:5c:9d:
         27:7c:20:a4:2b:6b:16:63:f2:6d:19:96:90:61:b6:31:5d:79:
         3c:7b:c4:de:26:7f:89:0d:c2:78:e2:32:1c:0b:45:9d:75:a8:
         6a:b4:95:a4:51:22:f2:1f:9c:8d:b8:a6:f9:eb:78:57:d6:3c:
         0e:57:49:34:2e:ed:35:14:a4:18:b7:8c:2b:e9:4a:17:4a:d0:
         49:8e:f5:41:47:2f:63:6d:72:ec:fb:29:c4:55:4b:ce:5f:f8:
         f3:24:0f:d5:1a:ef:a1:59:01:9f:41:34:de:9a:3f:dc:b9:5e:
         ba:b6:3c:e1:ba:0a:e4:d4:1f:75:28:1b:2d:36:cd:4a:19:94:
         35:21:11:7b:e2:a5:9d:7c:b1:89:38:44:67:50:d1:9e:0f:83:
         0b:b9:30:09:5d:53:98:5a:cc:60:75:4c:dc:fd:01:35:ef:68:
         ab:68:01:7e:6a:d8:08:08:19:8d:4d:12:04:79:67:94:41:4d:
         f9:52:fd:fb:4b:4f:1a:ed:0d:ce:d3:d0:2a:bd:41:ff:41:16:
         54:82:29:1e:73:b1:58:db:17:5d:24:82:43:84:55:2a:2b:3c:
         2f:57:b9:12
-----BEGIN CERTIFICATE-----
MIIDbDCCAlSgAwIBAgIUNxT4/yfH3Jp+1eqiFdQhGecEgwUwDQYJKoZIhvcNAQEL
BQAwdDELMAkGA1UEBhMCQ0gxETAPBgNVBAgMCHNoYW5naGFpMQwwCgYDVQQKDANu
aW8xDzANBgNVBAsMBmppbmJhbzEPMA0GA1UEAwwGamluYmFvMSIwIAYJKoZIhvcN
AQkBFhNqaW5iYW8udGFuZ0BuaW8uY29tMB4XDTIxMDYwNjA5MzUxNloXDTIyMDYw
NjA5MzUxNlowczELMAkGA1UEBhMCQ0gxETAPBgNVBAgMCHNoYW5naGFpMQwwCgYD
VQQKDANuaW8xDDAKBgNVBAsMA2RwZDERMA8GA1UEAwwIamluYmFvX3MxIjAgBgkq
hkiG9w0BCQEWE2ppbmJhby50YW5nQG5pby5jb20wgZ8wDQYJKoZIhvcNAQEBBQAD
gY0AMIGJAoGBALzwKrZjaVdtPH9/q/rK7euujeBW9u5OVeCkQvwQ4N9jAX8RMHjA
2xQoNQ2LLjlPVBT2tK+98xr23sYBIYXU6WD98UP2G6RxwYlYbn7LjMmREC23Ui58
/sbOL8ZZ5CHhWaf0gL4vZVO4ymKlqIbOMDdK+0fVB3Vk0DzSFcUjIv2xAgMBAAGj
ezB5MAkGA1UdEwQCMAAwLAYJYIZIAYb4QgENBB8WHU9wZW5TU0wgR2VuZXJhdGVk
IENlcnRpZmljYXRlMB0GA1UdDgQWBBTCUikR1Q3mWPubmjR5NHkWdmc4tTAfBgNV
HSMEGDAWgBRiCPMHyhWo52Rgxr6IZq/wjX+sdzANBgkqhkiG9w0BAQsFAAOCAQEA
i1P6sgJ2wA/cPSXgUKyu3EPxKlTuMH+BUs+eUxdmowyj8lydJ3wgpCtrFmPybRmW
kGG2MV15PHvE3iZ/iQ3CeOIyHAtFnXWoarSVpFEi8h+cjbim+et4V9Y8DldJNC7t
NRSkGLeMK+lKF0rQSY71QUcvY21y7PspxFVLzl/48yQP1RrvoVkBn0E03po/3Lle
urY84boK5NQfdSgbLTbNShmUNSERe+KlnXyxiThEZ1DRng+DC7kwCV1TmFrMYHVM
3P0BNe9oq2gBfmrYCAgZjU0SBHlnlEFN+VL9+0tPGu0NztPQKr1B/0EWVIIpHnOx
WNsXXSSCQ4RVKis8L1e5Eg==
-----END CERTIFICATE-----
