Certificate:
    Data:
        Version: 3 (0x2)
        Serial Number:
            37:14:f8:ff:27:c7:dc:9a:7e:d5:ea:a2:15:d4:21:19:e7:04:83:04
        Signature Algorithm: sha256WithRSAEncryption
        Issuer: C=CH, ST=shanghai, O=nio, OU=jinbao, CN=jinbao/emailAddress=jinbao.tang@nio.com
        Validity
            Not Before: Jun  6 09:28:48 2021 GMT
            Not After : Jun  6 09:28:48 2022 GMT
        Subject: C=CH, ST=shanghai, O=nio, OU=dpd, CN=jinbao/emailAddress=jinbao.tang@nio.com
        Subject Public Key Info:
            Public Key Algorithm: rsaEncryption
                RSA Public-Key: (1024 bit)
                Modulus:
                    00:a5:db:03:2d:e0:53:96:56:46:b5:0a:5b:da:90:
                    74:dd:5c:ad:d8:a8:8b:99:73:9c:a3:3f:5d:62:a0:
                    ef:9c:99:71:af:e6:c8:cd:ed:03:61:2a:cd:45:23:
                    d9:a1:c6:36:5b:51:12:a0:22:d5:90:7c:4a:e6:af:
                    ae:79:f3:8a:58:49:bb:50:2e:f9:54:63:0f:de:b9:
                    74:d4:07:9f:7b:bb:3c:fb:5a:a1:24:40:f8:14:39:
                    f5:e8:80:e9:1f:85:1f:68:b1:28:0e:db:64:72:10:
                    6f:d9:fc:2e:e0:0f:68:de:13:7c:fd:b8:3a:f4:92:
                    a7:29:e2:b5:31:24:4d:c1:41
                Exponent: 65537 (0x10001)
        X509v3 extensions:
            X509v3 Basic Constraints: 
                CA:FALSE
            Netscape Comment: 
                OpenSSL Generated Certificate
            X509v3 Subject Key Identifier: 
                FA:D5:6B:49:0B:F2:BF:16:1A:75:CF:12:D5:61:8C:DA:F1:2D:AA:28
            X509v3 Authority Key Identifier: 
                keyid:62:08:F3:07:CA:15:A8:E7:64:60:C6:BE:88:66:AF:F0:8D:7F:AC:77

    Signature Algorithm: sha256WithRSAEncryption
         ba:c0:fc:1f:52:9c:52:2a:5e:e5:41:43:f4:f8:1e:bf:db:f3:
         22:d9:c9:15:2f:0a:d0:dd:79:bb:5f:74:59:f0:f8:1a:6c:32:
         14:cb:0e:0c:33:ef:18:94:f3:51:96:75:2e:59:74:b5:d1:00:
         34:fb:cf:39:fe:f3:35:64:48:fa:cf:0f:9e:15:e4:17:d7:a0:
         84:0c:bb:a9:0c:d5:00:59:bf:b8:d8:3c:09:93:4b:57:56:28:
         7a:fa:60:2e:c4:07:01:fd:d7:fb:2b:06:8d:f4:85:32:bb:d0:
         dd:ac:57:55:1c:41:3c:68:8b:4f:ef:bd:e0:5f:93:4f:c7:f5:
         57:59:65:f8:e6:c4:7e:5e:ba:d2:a8:95:46:55:b7:d3:b2:d2:
         c0:32:1e:1c:82:26:04:00:f7:8a:30:4b:11:eb:b8:bb:1c:16:
         c8:4b:61:16:f5:0c:76:96:5f:32:3d:55:6c:69:73:68:75:e2:
         6d:72:ac:39:e5:18:1a:47:85:bb:cc:92:6a:fe:ac:31:00:41:
         97:c7:56:c1:fd:1e:40:43:76:43:c9:82:b0:60:71:98:f2:6e:
         9f:65:f3:77:8a:26:fc:fb:c6:61:2d:e4:23:4f:d6:39:c0:2d:
         2b:69:67:75:e8:cc:50:97:77:df:53:42:de:af:48:bb:98:b5:
         ed:79:3c:ec
-----BEGIN CERTIFICATE-----
MIIDajCCAlKgAwIBAgIUNxT4/yfH3Jp+1eqiFdQhGecEgwQwDQYJKoZIhvcNAQEL
BQAwdDELMAkGA1UEBhMCQ0gxETAPBgNVBAgMCHNoYW5naGFpMQwwCgYDVQQKDANu
aW8xDzANBgNVBAsMBmppbmJhbzEPMA0GA1UEAwwGamluYmFvMSIwIAYJKoZIhvcN
AQkBFhNqaW5iYW8udGFuZ0BuaW8uY29tMB4XDTIxMDYwNjA5Mjg0OFoXDTIyMDYw
NjA5Mjg0OFowcTELMAkGA1UEBhMCQ0gxETAPBgNVBAgMCHNoYW5naGFpMQwwCgYD
VQQKDANuaW8xDDAKBgNVBAsMA2RwZDEPMA0GA1UEAwwGamluYmFvMSIwIAYJKoZI
hvcNAQkBFhNqaW5iYW8udGFuZ0BuaW8uY29tMIGfMA0GCSqGSIb3DQEBAQUAA4GN
ADCBiQKBgQCl2wMt4FOWVka1ClvakHTdXK3YqIuZc5yjP11ioO+cmXGv5sjN7QNh
Ks1FI9mhxjZbURKgItWQfErmr65584pYSbtQLvlUYw/euXTUB597uzz7WqEkQPgU
OfXogOkfhR9osSgO22RyEG/Z/C7gD2jeE3z9uDr0kqcp4rUxJE3BQQIDAQABo3sw
eTAJBgNVHRMEAjAAMCwGCWCGSAGG+EIBDQQfFh1PcGVuU1NMIEdlbmVyYXRlZCBD
ZXJ0aWZpY2F0ZTAdBgNVHQ4EFgQU+tVrSQvyvxYadc8S1WGM2vEtqigwHwYDVR0j
BBgwFoAUYgjzB8oVqOdkYMa+iGav8I1/rHcwDQYJKoZIhvcNAQELBQADggEBALrA
/B9SnFIqXuVBQ/T4Hr/b8yLZyRUvCtDdebtfdFnw+BpsMhTLDgwz7xiU81GWdS5Z
dLXRADT7zzn+8zVkSPrPD54V5BfXoIQMu6kM1QBZv7jYPAmTS1dWKHr6YC7EBwH9
1/srBo30hTK70N2sV1UcQTxoi0/vveBfk0/H9VdZZfjmxH5eutKolUZVt9Oy0sAy
HhyCJgQA94owSxHruLscFshLYRb1DHaWXzI9VWxpc2h14m1yrDnlGBpHhbvMkmr+
rDEAQZfHVsH9HkBDdkPJgrBgcZjybp9l83eKJvz7xmEt5CNP1jnALStpZ3XozFCX
d99TQt6vSLuYte15POw=
-----END CERTIFICATE-----
