Certificate:
    Data:
        Version: 3 (0x2)
        Serial Number:
            37:14:f8:ff:27:c7:dc:9a:7e:d5:ea:a2:15:d4:21:19:e7:04:83:07
        Signature Algorithm: sha256WithRSAEncryption
        Issuer: C=CH, ST=shanghai, O=nio, OU=dpd, CN=jinbao/emailAddress=jinbao.tang@nio.com
        Validity
            Not Before: Jun  6 10:56:45 2021 GMT
            Not After : Jun  6 10:56:45 2022 GMT
        Subject: C=CH, ST=shanghai, O=nio, OU=dpdc, CN=jinbao/emailAddress=jinbao.tang@nio.com
        Subject Public Key Info:
            Public Key Algorithm: rsaEncryption
                RSA Public-Key: (2048 bit)
                Modulus:
                    00:9e:ed:21:71:44:9f:fd:2d:ba:1b:16:a6:9b:dc:
                    a9:a6:d6:5a:c1:7c:f3:c2:47:bd:9d:ca:61:9d:a2:
                    7b:14:aa:8c:9e:53:ea:65:a9:e6:b8:1e:2c:14:12:
                    48:36:96:e8:99:e4:49:1d:b2:62:9e:0b:d4:f1:d1:
                    19:46:03:52:29:15:87:75:3d:ef:b0:50:aa:88:fc:
                    ce:29:f7:b5:e4:e5:c4:05:ff:83:8b:ec:a8:a3:6b:
                    4b:38:45:56:98:e8:9b:e1:36:7b:70:c3:52:ab:d8:
                    d7:be:24:9b:b2:10:18:ed:6b:b4:65:be:c2:a6:02:
                    41:97:aa:ab:55:b7:aa:14:76:e5:be:f2:36:11:6a:
                    0a:61:a1:98:a5:4f:e3:fb:fe:de:29:db:39:a8:56:
                    11:51:9d:58:c0:3d:2b:f7:07:64:f8:0d:86:1d:ca:
                    32:70:29:ac:b6:7d:2e:be:fb:24:9f:77:01:0b:61:
                    c4:41:b5:74:6e:52:6c:ea:b1:87:67:f0:bc:c1:06:
                    ae:b7:16:76:34:81:9d:13:04:29:dc:fe:e0:71:b7:
                    f1:42:5b:1a:8f:3b:49:62:ab:6a:4f:1e:4b:94:68:
                    50:bb:ef:03:9d:e7:15:78:f1:83:8c:82:07:9e:3b:
                    5b:03:e8:af:da:ef:ce:be:bf:2f:db:fb:71:c0:2e:
                    51:93
                Exponent: 65537 (0x10001)
        X509v3 extensions:
            X509v3 Basic Constraints: 
                CA:FALSE
            Netscape Comment: 
                OpenSSL Generated Certificate
            X509v3 Subject Key Identifier: 
                E5:04:A8:C8:C8:62:7C:39:6B:12:01:70:60:F8:00:A5:6F:73:35:5C
            X509v3 Authority Key Identifier: 
                keyid:75:B5:86:8D:9F:FA:15:19:BF:EA:A4:33:53:51:DE:16:50:40:F2:01

    Signature Algorithm: sha256WithRSAEncryption
         3e:46:5d:0d:c2:d2:f7:5a:22:77:31:b8:21:4d:54:8b:a8:ee:
         63:37:82:86:e7:fa:a4:42:74:3a:d9:c6:35:5d:fd:03:a9:82:
         4f:92:89:84:28:f9:49:57:03:c8:78:ab:33:eb:7b:e9:4b:45:
         0c:99:55:87:f5:4a:3e:83:bb:68:82:22:64:ff:f1:09:2f:22:
         9f:5e:62:86:f5:98:7b:c5:2f:5d:00:6a:d5:e7:df:a5:d0:a1:
         ba:61:8a:42:b4:45:1a:94:9e:dc:88:e2:aa:ef:98:36:f6:b9:
         84:cb:00:68:e5:d9:f7:86:d9:eb:d6:ac:8a:96:b0:99:8d:5b:
         51:99:13:a7:1a:8d:b9:ba:e0:44:a5:f3:2f:fe:2e:1a:e6:dc:
         96:f7:7b:a5:dc:1a:d6:7a:ea:82:3a:0e:4b:5e:44:33:2d:8e:
         d9:63:db:bf:f3:76:e4:cb:d6:85:7f:f4:b5:d2:c9:62:9e:26:
         5c:32:98:8d:4e:a7:57:ba:07:74:d4:65:19:3e:d7:15:7e:85:
         9f:03:bc:e3:4a:48:7c:7b:a7:06:1e:f4:71:95:49:79:87:3c:
         1e:93:6c:5b:59:b4:4a:80:fe:6b:d9:4a:10:79:07:8a:ac:45:
         c8:21:ce:91:54:8f:29:74:26:2d:a0:6b:8a:a2:27:41:fa:56:
         97:b8:3a:59
-----BEGIN CERTIFICATE-----
MIID7DCCAtSgAwIBAgIUNxT4/yfH3Jp+1eqiFdQhGecEgwcwDQYJKoZIhvcNAQEL
BQAwcTELMAkGA1UEBhMCQ0gxETAPBgNVBAgMCHNoYW5naGFpMQwwCgYDVQQKDANu
aW8xDDAKBgNVBAsMA2RwZDEPMA0GA1UEAwwGamluYmFvMSIwIAYJKoZIhvcNAQkB
FhNqaW5iYW8udGFuZ0BuaW8uY29tMB4XDTIxMDYwNjEwNTY0NVoXDTIyMDYwNjEw
NTY0NVowcjELMAkGA1UEBhMCQ0gxETAPBgNVBAgMCHNoYW5naGFpMQwwCgYDVQQK
DANuaW8xDTALBgNVBAsMBGRwZGMxDzANBgNVBAMMBmppbmJhbzEiMCAGCSqGSIb3
DQEJARYTamluYmFvLnRhbmdAbmlvLmNvbTCCASIwDQYJKoZIhvcNAQEBBQADggEP
ADCCAQoCggEBAJ7tIXFEn/0tuhsWppvcqabWWsF888JHvZ3KYZ2iexSqjJ5T6mWp
5rgeLBQSSDaW6JnkSR2yYp4L1PHRGUYDUikVh3U977BQqoj8zin3teTlxAX/g4vs
qKNrSzhFVpjom+E2e3DDUqvY174km7IQGO1rtGW+wqYCQZeqq1W3qhR25b7yNhFq
CmGhmKVP4/v+3inbOahWEVGdWMA9K/cHZPgNhh3KMnAprLZ9Lr77JJ93AQthxEG1
dG5SbOqxh2fwvMEGrrcWdjSBnRMEKdz+4HG38UJbGo87SWKrak8eS5RoULvvA53n
FXjxg4yCB547WwPor9rvzr6/L9v7ccAuUZMCAwEAAaN7MHkwCQYDVR0TBAIwADAs
BglghkgBhvhCAQ0EHxYdT3BlblNTTCBHZW5lcmF0ZWQgQ2VydGlmaWNhdGUwHQYD
VR0OBBYEFOUEqMjIYnw5axIBcGD4AKVvczVcMB8GA1UdIwQYMBaAFHW1ho2f+hUZ
v+qkM1NR3hZQQPIBMA0GCSqGSIb3DQEBCwUAA4IBAQA+Rl0NwtL3WiJ3MbghTVSL
qO5jN4KG5/qkQnQ62cY1Xf0DqYJPkomEKPlJVwPIeKsz63vpS0UMmVWH9Uo+g7to
giJk//EJLyKfXmKG9Zh7xS9dAGrV59+l0KG6YYpCtEUalJ7ciOKq75g29rmEywBo
5dn3htnr1qyKlrCZjVtRmROnGo25uuBEpfMv/i4a5tyW93ul3BrWeuqCOg5LXkQz
LY7ZY9u/83bky9aFf/S10sliniZcMpiNTqdXugd01GUZPtcVfoWfA7zjSkh8e6cG
HvRxlUl5hzwek2xbWbRKgP5r2UoQeQeKrEXIIc6RVI8pdCYtoGuKoidB+laXuDpZ
-----END CERTIFICATE-----
