Certificate:
    Data:
        Version: 3 (0x2)
        Serial Number:
            37:14:f8:ff:27:c7:dc:9a:7e:d5:ea:a2:15:d4:21:19:e7:04:83:08
        Signature Algorithm: sha256WithRSAEncryption
        Issuer: C=CH, ST=shanghai, O=nio, OU=dpd, CN=jinbao/emailAddress=jinbao.tang@nio.com
        Validity
            Not Before: Jun  6 10:57:16 2021 GMT
            Not After : Jun  6 10:57:16 2022 GMT
        Subject: C=CH, ST=shanghai, O=nio, OU=dpds, CN=jinbao/emailAddress=jinbao.tang@nio.com
        Subject Public Key Info:
            Public Key Algorithm: rsaEncryption
                RSA Public-Key: (2048 bit)
                Modulus:
                    00:b2:19:11:4e:1d:87:f2:f1:bf:45:1b:0f:be:66:
                    c3:32:0f:f4:4c:55:3b:42:d7:14:49:03:dc:f0:41:
                    d1:7d:66:fb:01:6f:05:d2:95:f8:5a:e6:00:63:10:
                    b2:4f:2e:9e:27:ba:e2:b7:12:b4:42:6f:1a:a5:7d:
                    e8:c2:e4:ad:ef:d8:80:54:bf:c5:b0:99:84:17:b6:
                    1b:62:0f:88:5e:31:e2:b3:11:47:90:6c:10:77:17:
                    2b:46:26:da:79:a5:80:3c:98:39:3b:c4:30:90:b3:
                    6d:a0:38:9c:ba:61:e0:eb:a0:72:e7:3a:d9:33:9a:
                    5c:c8:ab:94:40:f9:5d:be:35:0f:7f:9b:65:fb:07:
                    75:5e:18:02:40:0e:08:02:91:ca:37:dc:0b:94:33:
                    1a:f9:af:6f:86:db:f0:d5:ad:58:13:6e:4b:3f:ae:
                    7d:ab:0d:ad:ba:17:12:e0:ae:d1:fe:79:d7:0e:8e:
                    e0:db:54:58:d2:a4:12:57:c7:46:1e:8a:50:52:de:
                    4b:50:48:dc:55:6b:3f:15:58:0c:03:7f:cf:a8:e8:
                    8b:a5:7b:16:8e:82:c8:8e:b2:69:03:09:4b:a0:9b:
                    1c:7a:cc:02:11:25:81:b4:86:bf:82:a7:2b:0d:c1:
                    0f:77:b4:88:d3:76:60:8e:f5:e9:72:bc:14:f5:cd:
                    f8:09
                Exponent: 65537 (0x10001)
        X509v3 extensions:
            X509v3 Basic Constraints: 
                CA:FALSE
            Netscape Comment: 
                OpenSSL Generated Certificate
            X509v3 Subject Key Identifier: 
                A8:A6:57:BA:64:9D:02:0A:FF:C3:CE:8E:ED:2E:04:3C:FE:4E:02:6F
            X509v3 Authority Key Identifier: 
                keyid:75:B5:86:8D:9F:FA:15:19:BF:EA:A4:33:53:51:DE:16:50:40:F2:01

    Signature Algorithm: sha256WithRSAEncryption
         62:c9:ba:cb:d9:3d:d6:51:e7:a3:b6:99:2f:13:e0:9f:50:11:
         58:e8:f7:c6:44:06:0e:90:dc:fa:56:c7:a0:da:48:b3:11:24:
         b5:ed:5f:0a:61:af:b0:6d:04:0f:2a:81:19:08:7f:94:1d:a0:
         c2:f8:24:23:2d:04:df:a2:64:16:55:db:54:ea:d5:c2:5e:bd:
         3e:25:5e:77:65:dd:37:51:28:0c:02:c1:76:14:d9:af:b6:da:
         34:03:3a:26:88:68:97:98:25:57:af:d9:75:01:37:a3:86:70:
         e8:1f:2e:ed:e0:1a:e7:f7:a2:41:d1:17:33:05:e3:be:ca:2f:
         94:f1:ae:fd:f1:40:13:e4:54:1b:1d:4c:2a:94:ba:db:0e:2c:
         39:07:e1:c2:ec:46:9e:0e:5c:cd:43:3e:a4:d7:9b:d8:0f:5b:
         80:ba:81:da:a6:b7:3e:5e:9e:73:36:25:fb:7c:e5:fb:9e:25:
         b6:d4:14:91:64:b1:dc:1b:6d:0e:b2:3d:d9:c0:cf:1d:73:8c:
         64:0e:5f:0d:cc:a8:0e:69:f7:84:64:8a:28:80:72:b2:5a:11:
         e3:4a:f5:dd:2b:d1:2b:76:02:b7:0d:d3:54:52:c3:e3:b5:d2:
         23:6c:7d:bf:78:f3:bc:21:38:f1:ca:34:22:d9:ed:f2:86:96:
         96:85:55:3e
-----BEGIN CERTIFICATE-----
MIID7DCCAtSgAwIBAgIUNxT4/yfH3Jp+1eqiFdQhGecEgwgwDQYJKoZIhvcNAQEL
BQAwcTELMAkGA1UEBhMCQ0gxETAPBgNVBAgMCHNoYW5naGFpMQwwCgYDVQQKDANu
aW8xDDAKBgNVBAsMA2RwZDEPMA0GA1UEAwwGamluYmFvMSIwIAYJKoZIhvcNAQkB
FhNqaW5iYW8udGFuZ0BuaW8uY29tMB4XDTIxMDYwNjEwNTcxNloXDTIyMDYwNjEw
NTcxNlowcjELMAkGA1UEBhMCQ0gxETAPBgNVBAgMCHNoYW5naGFpMQwwCgYDVQQK
DANuaW8xDTALBgNVBAsMBGRwZHMxDzANBgNVBAMMBmppbmJhbzEiMCAGCSqGSIb3
DQEJARYTamluYmFvLnRhbmdAbmlvLmNvbTCCASIwDQYJKoZIhvcNAQEBBQADggEP
ADCCAQoCggEBALIZEU4dh/Lxv0UbD75mwzIP9ExVO0LXFEkD3PBB0X1m+wFvBdKV
+FrmAGMQsk8unie64rcStEJvGqV96MLkre/YgFS/xbCZhBe2G2IPiF4x4rMRR5Bs
EHcXK0Ym2nmlgDyYOTvEMJCzbaA4nLph4Ougcuc62TOaXMirlED5Xb41D3+bZfsH
dV4YAkAOCAKRyjfcC5QzGvmvb4bb8NWtWBNuSz+ufasNrboXEuCu0f551w6O4NtU
WNKkElfHRh6KUFLeS1BI3FVrPxVYDAN/z6joi6V7Fo6CyI6yaQMJS6CbHHrMAhEl
gbSGv4KnKw3BD3e0iNN2YI716XK8FPXN+AkCAwEAAaN7MHkwCQYDVR0TBAIwADAs
BglghkgBhvhCAQ0EHxYdT3BlblNTTCBHZW5lcmF0ZWQgQ2VydGlmaWNhdGUwHQYD
VR0OBBYEFKimV7pknQIK/8POju0uBDz+TgJvMB8GA1UdIwQYMBaAFHW1ho2f+hUZ
v+qkM1NR3hZQQPIBMA0GCSqGSIb3DQEBCwUAA4IBAQBiybrL2T3WUeejtpkvE+Cf
UBFY6PfGRAYOkNz6Vseg2kizESS17V8KYa+wbQQPKoEZCH+UHaDC+CQjLQTfomQW
VdtU6tXCXr0+JV53Zd03USgMAsF2FNmvtto0AzomiGiXmCVXr9l1ATejhnDoHy7t
4Brn96JB0RczBeO+yi+U8a798UAT5FQbHUwqlLrbDiw5B+HC7EaeDlzNQz6k15vY
D1uAuoHaprc+Xp5zNiX7fOX7niW21BSRZLHcG20Osj3ZwM8dc4xkDl8NzKgOafeE
ZIoogHKyWhHjSvXdK9ErdgK3DdNUUsPjtdIjbH2/ePO8ITjxyjQi2e3yhpaWhVU+
-----END CERTIFICATE-----
